ccopy_reg
_reconstructor
p1
(csklearn.feature_extraction.text
CountVectorizer
p2
c__builtin__
object
p3
NtRp4
(dp5
S'decode_error'
p6
Vstrict
p7
sS'lowercase'
p8
I01
sS'stop_words'
p9
NsS'vocabulary'
p10
(lp11
S'love'
p12
aS'great'
p13
aS'easy'
p14
aS'old'
p15
aS'little'
p16
aS'perfect'
p17
aS'loves'
p18
aS'well'
p19
aS'able'
p20
aS'car'
p21
aS'broke'
p22
aS'less'
p23
aS'even'
p24
aS'waste'
p25
aS'disappointed'
p26
aS'work'
p27
aS'product'
p28
aS'money'
p29
aS'would'
p30
aS'return'
p31
asS'tokenizer'
p32
NsS'encoding'
p33
Vutf-8
p34
sS'token_pattern'
p35
S'\\b\\w+\\b'
p36
sS'max_df'
p37
F1
sS'fixed_vocabulary_'
p38
I01
sS'analyzer'
p39
Vword
p40
sS'vocabulary_'
p41
(dp42
g24
I12
sg28
I16
sg15
I3
sg14
I2
sg12
I0
sg23
I11
sg29
I17
sg16
I4
sg22
I10
sg31
I19
sg26
I14
sg19
I7
sg17
I5
sg13
I1
sg30
I18
sg21
I9
sg27
I15
sg20
I8
sg18
I6
sg25
I13
ssS'binary'
p43
I00
sS'ngram_range'
p44
(I1
I1
tp45
sS'preprocessor'
p46
NsS'min_df'
p47
I1
sS'max_features'
p48
NsS'input'
p49
Vcontent
p50
sS'dtype'
p51
cnumpy
int64
p52
sS'strip_accents'
p53
Nsb.