ccopy_reg
_reconstructor
p1
(csklearn.feature_extraction.text
CountVectorizer
p2
c__builtin__
object
p3
NtRp4
(dp5
S'binary'
p6
I00
sS'lowercase'
p7
I01
sS'stop_words'
p8
NsS'tokenizer'
p9
NsS'token_pattern'
p10
S'\\b\\w+\\b'
p11
sS'charset_error'
p12
S'strict'
p13
sS'charset'
p14
S'utf-8'
p15
sS'fixed_vocabulary'
p16
I01
sS'analyzer'
p17
S'word'
p18
sS'vocabulary_'
p19
(dp20
S'perfect'
p21
I5
sS'broke'
p22
I10
sS'great'
p23
I1
sS'work'
p24
I15
sS'old'
p25
I3
sS'loves'
p26
I6
sS'would'
p27
I18
sS'less'
p28
I11
sS'money'
p29
I17
sS'able'
p30
I8
sS'even'
p31
I12
sS'well'
p32
I7
sS'little'
p33
I4
sS'product'
p34
I16
sS'return'
p35
I19
sS'easy'
p36
I2
sS'car'
p37
I9
sS'love'
p38
I0
sS'waste'
p39
I13
sS'disappointed'
p40
I14
ssS'ngram_range'
p41
(I1
I1
tp42
sS'preprocessor'
p43
NsS'min_df'
p44
I2
sS'max_features'
p45
NsS'input'
p46
S'content'
p47
sS'max_df'
p48
F1
sS'dtype'
p49
c__builtin__
long
p50
sS'strip_accents'
p51
Nsb.